target datalayout = "e-m:e-p270:32:32-p271:32:32-p272:64:64-i64:64-i128:128-f80:128-n8:16:32:64-S128"
target triple = "x86_64-pc-linux-gnu"

%struct.AVFormatContext = type { ptr, ptr, ptr, ptr, ptr, i32, i32, ptr, i32, ptr, i32, ptr, ptr, i64, i64, i64, i32, i32, i32, i64, i64, ptr, i32, i32, ptr, i32, i32, i32, i32, ptr, i64, i32, i32, %struct.AVIOInterruptCB, i32, i32, i32, i32, i64, i32, i32, i32, i32, i32, i32, i32, i32, i32, i32, i32, i32, i64, i32, i32, i32, i32, i32, ptr, ptr, ptr, ptr, i32, ptr, ptr, ptr, ptr, i32, ptr, ptr, i64, ptr, ptr, ptr, i64 }
%struct.AVIOInterruptCB = type { ptr, ptr }
%struct.AVPacket = type { ptr, i64, i64, ptr, i32, i32, i32, ptr, i32, i64, i64, ptr, ptr, %struct.AVRational }
%struct.AVRational = type { i32, i32 }
%struct.AVStream = type { ptr, i32, i32, ptr, ptr, %struct.AVRational, i64, i64, i64, i32, i32, %struct.AVRational, ptr, %struct.AVRational, %struct.AVPacket, i32, %struct.AVRational, i32 }
%struct.MXFStreamContext = type { i64, [16 x i8], i32, ptr, ptr, i32, i32, i32, i32, i32, i32, i32, i32, i32, %struct.AVRational, i32, i32, i32, i32, i32, i32, i32, i32, i32, i32, %struct.j2k_info_t }
%struct.j2k_info_t = type { i16, i16, i32, i32, i32, i32, i32, i32, i32, i32, [12 x i8] }
%struct.AVCodecParameters = type { i32, i32, i32, ptr, i32, ptr, i32, i32, i64, i32, i32, i32, i32, i32, i32, %struct.AVRational, %struct.AVRational, i32, i32, i32, i32, i32, i32, i32, %struct.AVChannelLayout, i32, i32, i32, i32, i32, i32 }
%struct.AVChannelLayout = type { i32, i32, %union.anon.0, ptr }
%union.anon.0 = type { i64 }

@mxf_mpegvideo_descriptor_key = internal constant [16 x i8] c"\06\0E+4\02S\01\01\0D\01\01\01\01\01Q\00", align 16

; Function Attrs: nounwind uwtable
define internal void @klv_encode_ber4_length(ptr noundef %0, i32 noundef %1) #0 {
  %3 = alloca ptr, align 8
  %4 = alloca i32, align 4
  store ptr %0, ptr %3, align 8, !tbaa !31
  store i32 %1, ptr %4, align 4, !tbaa !57
  %5 = load ptr, ptr %3, align 8, !tbaa !31
  call void @avio_w8(ptr noundef %5, i32 noundef 131)
  %6 = load ptr, ptr %3, align 8, !tbaa !31
  %7 = load i32, ptr %4, align 4, !tbaa !57
  call void @avio_wb24(ptr noundef %6, i32 noundef %7)
  ret void
}

; Function Attrs: alwaysinline nounwind uwtable
define internal i64 @avio_tell(ptr noundef %0) #8 {
  %2 = alloca ptr, align 8
  store ptr %0, ptr %2, align 8, !tbaa !31
  %3 = load ptr, ptr %2, align 8, !tbaa !31
  %4 = call i64 @avio_seek(ptr noundef %3, i64 noundef 0, i32 noundef 1)
  ret i64 %4
}

; Function Attrs: nounwind uwtable
define internal void @mxf_update_klv_size(ptr noundef %0, i64 noundef %1) #0 {
  %3 = alloca ptr, align 8
  %4 = alloca i64, align 8
  %5 = alloca i64, align 8
  %6 = alloca i32, align 4
  store ptr %0, ptr %3, align 8, !tbaa !31
  store i64 %1, ptr %4, align 8, !tbaa !80
  call void @llvm.lifetime.start.p0(i64 8, ptr %5) #13
  %7 = load ptr, ptr %3, align 8, !tbaa !31
  %8 = call i64 @avio_tell(ptr noundef %7)
  store i64 %8, ptr %5, align 8, !tbaa !80
  call void @llvm.lifetime.start.p0(i64 4, ptr %6) #13
  %9 = load i64, ptr %5, align 8, !tbaa !80
  %10 = load i64, ptr %4, align 8, !tbaa !80
  %11 = sub nsw i64 %9, %10
  %12 = trunc i64 %11 to i32
  store i32 %12, ptr %6, align 4, !tbaa !57
  %13 = load ptr, ptr %3, align 8, !tbaa !31
  %14 = load i64, ptr %4, align 8, !tbaa !80
  %15 = sub nsw i64 %14, 4
  %16 = call i64 @avio_seek(ptr noundef %13, i64 noundef %15, i32 noundef 0)
  %17 = load ptr, ptr %3, align 8, !tbaa !31
  %18 = load i32, ptr %6, align 4, !tbaa !57
  call void @klv_encode_ber4_length(ptr noundef %17, i32 noundef %18)
  %19 = load ptr, ptr %3, align 8, !tbaa !31
  %20 = load i64, ptr %5, align 8, !tbaa !80
  %21 = call i64 @avio_seek(ptr noundef %19, i64 noundef %20, i32 noundef 0)
  call void @llvm.lifetime.end.p0(i64 4, ptr %6) #13
  call void @llvm.lifetime.end.p0(i64 8, ptr %5) #13
  ret void
}

; Function Attrs: nounwind uwtable
define internal i32 @mxf_write_mpegvideo_desc(ptr noundef %0, ptr noundef %1) #0 {
  %3 = alloca ptr, align 8
  %4 = alloca ptr, align 8
  %5 = alloca ptr, align 8
  %6 = alloca ptr, align 8
  %7 = alloca i32, align 4
  %8 = alloca i64, align 8
  store ptr %0, ptr %3, align 8, !tbaa !4
  store ptr %1, ptr %4, align 8, !tbaa !38
  call void @llvm.lifetime.start.p0(i64 8, ptr %5) #13
  %9 = load ptr, ptr %3, align 8, !tbaa !4
  %10 = getelementptr inbounds nuw %struct.AVFormatContext, ptr %9, i32 0, i32 4
  %11 = load ptr, ptr %10, align 8, !tbaa !30
  store ptr %11, ptr %5, align 8, !tbaa !31
  call void @llvm.lifetime.start.p0(i64 8, ptr %6) #13
  %12 = load ptr, ptr %4, align 8, !tbaa !38
  %13 = getelementptr inbounds nuw %struct.AVStream, ptr %12, i32 0, i32 4
  %14 = load ptr, ptr %13, align 8, !tbaa !40
  store ptr %14, ptr %6, align 8, !tbaa !43
  call void @llvm.lifetime.start.p0(i64 4, ptr %7) #13
  %15 = load ptr, ptr %4, align 8, !tbaa !38
  %16 = getelementptr inbounds nuw %struct.AVStream, ptr %15, i32 0, i32 3
  %17 = load ptr, ptr %16, align 8, !tbaa !58
  %18 = getelementptr inbounds nuw %struct.AVCodecParameters, ptr %17, i32 0, i32 11
  %19 = load i32, ptr %18, align 8, !tbaa !141
  %20 = shl i32 %19, 4
  %21 = load ptr, ptr %4, align 8, !tbaa !38
  %22 = getelementptr inbounds nuw %struct.AVStream, ptr %21, i32 0, i32 3
  %23 = load ptr, ptr %22, align 8, !tbaa !58
  %24 = getelementptr inbounds nuw %struct.AVCodecParameters, ptr %23, i32 0, i32 12
  %25 = load i32, ptr %24, align 4, !tbaa !142
  %26 = or i32 %20, %25
  store i32 %26, ptr %7, align 4, !tbaa !57
  call void @llvm.lifetime.start.p0(i64 8, ptr %8) #13
  %27 = load ptr, ptr %3, align 8, !tbaa !4
  %28 = load ptr, ptr %4, align 8, !tbaa !38
  %29 = call i64 @mxf_write_cdci_common(ptr noundef %27, ptr noundef %28, ptr noundef @mxf_mpegvideo_descriptor_key)
  store i64 %29, ptr %8, align 8, !tbaa !80
  %30 = load ptr, ptr %4, align 8, !tbaa !38
  %31 = getelementptr inbounds nuw %struct.AVStream, ptr %30, i32 0, i32 3
  %32 = load ptr, ptr %31, align 8, !tbaa !58
  %33 = getelementptr inbounds nuw %struct.AVCodecParameters, ptr %32, i32 0, i32 1
  %34 = load i32, ptr %33, align 4, !tbaa !59
  %35 = icmp ne i32 %34, 27
  br i1 %35, label %36, label %75

36:                                               ; preds = %2
  %37 = load ptr, ptr %3, align 8, !tbaa !4
  call void @mxf_write_local_tag(ptr noundef %37, i32 noundef 4, i32 noundef 32768)
  %38 = load ptr, ptr %5, align 8, !tbaa !31
  %39 = load ptr, ptr %6, align 8, !tbaa !43
  %40 = getelementptr inbounds nuw %struct.MXFStreamContext, ptr %39, i32 0, i32 16
  %41 = load i32, ptr %40, align 8, !tbaa !117
  call void @avio_wb32(ptr noundef %38, i32 noundef %41)
  %42 = load ptr, ptr %3, align 8, !tbaa !4
  call void @mxf_write_local_tag(ptr noundef %42, i32 noundef 1, i32 noundef 32775)
  %43 = load ptr, ptr %4, align 8, !tbaa !38
  %44 = getelementptr inbounds nuw %struct.AVStream, ptr %43, i32 0, i32 3
  %45 = load ptr, ptr %44, align 8, !tbaa !58
  %46 = getelementptr inbounds nuw %struct.AVCodecParameters, ptr %45, i32 0, i32 11
  %47 = load i32, ptr %46, align 8, !tbaa !141
  %48 = icmp ne i32 %47, 0
  br i1 %48, label %52, label %49

49:                                               ; preds = %36
  %50 = load i32, ptr %7, align 4, !tbaa !57
  %51 = or i32 %50, 128
  store i32 %51, ptr %7, align 4, !tbaa !57
  br label %52

52:                                               ; preds = %49, %36
  %53 = load ptr, ptr %5, align 8, !tbaa !31
  %54 = load i32, ptr %7, align 4, !tbaa !57
  call void @avio_w8(ptr noundef %53, i32 noundef %54)
  %55 = load ptr, ptr %3, align 8, !tbaa !4
  call void @mxf_write_local_tag(ptr noundef %55, i32 noundef 1, i32 noundef 32771)
  %56 = load ptr, ptr %5, align 8, !tbaa !31
  %57 = load ptr, ptr %6, align 8, !tbaa !43
  %58 = getelementptr inbounds nuw %struct.MXFStreamContext, ptr %57, i32 0, i32 22
  %59 = load i32, ptr %58, align 8, !tbaa !143
  call void @avio_w8(ptr noundef %56, i32 noundef %59)
  %60 = load ptr, ptr %3, align 8, !tbaa !4
  call void @mxf_write_local_tag(ptr noundef %60, i32 noundef 1, i32 noundef 32772)
  %61 = load ptr, ptr %5, align 8, !tbaa !31
  %62 = load ptr, ptr %6, align 8, !tbaa !43
  %63 = getelementptr inbounds nuw %struct.MXFStreamContext, ptr %62, i32 0, i32 19
  %64 = load i32, ptr %63, align 4, !tbaa !115
  call void @avio_w8(ptr noundef %61, i32 noundef %64)
  %65 = load ptr, ptr %3, align 8, !tbaa !4
  call void @mxf_write_local_tag(ptr noundef %65, i32 noundef 2, i32 noundef 32774)
  %66 = load ptr, ptr %5, align 8, !tbaa !31
  %67 = load ptr, ptr %6, align 8, !tbaa !43
  %68 = getelementptr inbounds nuw %struct.MXFStreamContext, ptr %67, i32 0, i32 20
  %69 = load i32, ptr %68, align 8, !tbaa !196
  call void @avio_wb16(ptr noundef %66, i32 noundef %69)
  %70 = load ptr, ptr %3, align 8, !tbaa !4
  call void @mxf_write_local_tag(ptr noundef %70, i32 noundef 2, i32 noundef 32776)
  %71 = load ptr, ptr %5, align 8, !tbaa !31
  %72 = load ptr, ptr %6, align 8, !tbaa !43
  %73 = getelementptr inbounds nuw %struct.MXFStreamContext, ptr %72, i32 0, i32 21
  %74 = load i32, ptr %73, align 4, !tbaa !198
  call void @avio_wb16(ptr noundef %71, i32 noundef %74)
  br label %75

75:                                               ; preds = %52, %2
  %76 = load ptr, ptr %5, align 8, !tbaa !31
  %77 = load i64, ptr %8, align 8, !tbaa !80
  call void @mxf_update_klv_size(ptr noundef %76, i64 noundef %77)
  call void @llvm.lifetime.end.p0(i64 8, ptr %8) #13
  call void @llvm.lifetime.end.p0(i64 4, ptr %7) #13
  call void @llvm.lifetime.end.p0(i64 8, ptr %6) #13
  call void @llvm.lifetime.end.p0(i64 8, ptr %5) #13
  ret i32 0
}