; Function Attrs: nounwind uwtable
define internal noundef i32 @mxf_write_mpegvideo_desc(ptr noundef readonly captures(none) %0, ptr noundef readonly captures(none) %1) #0 {
  %3 = getelementptr inbounds nuw i8, ptr %0, i64 32
  %4 = load ptr, ptr %3, align 8, !tbaa !24
  %5 = getelementptr inbounds nuw i8, ptr %1, i64 24
  %6 = load ptr, ptr %5, align 8, !tbaa !33
  %7 = getelementptr inbounds nuw i8, ptr %1, i64 16
  %8 = load ptr, ptr %7, align 8, !tbaa !48
  %9 = getelementptr inbounds nuw i8, ptr %8, i64 64
  %10 = load i32, ptr %9, align 8, !tbaa !55
  %11 = getelementptr inbounds nuw i8, ptr %8, i64 68
  %12 = load i32, ptr %11, align 4, !tbaa !56
  %13 = tail call fastcc i64 @mxf_write_cdci_common(ptr noundef %0, ptr noundef %1, ptr noundef nonnull @mxf_mpegvideo_descriptor_key)
  %14 = load ptr, ptr %7, align 8, !tbaa !48
  %15 = getelementptr inbounds nuw i8, ptr %14, i64 4
  %16 = load i32, ptr %15, align 4, !tbaa !49
  %.not = icmp eq i32 %16, 27
  br i1 %.not, label %35, label %17

17:                                               ; preds = %2
  %18 = shl i32 %10, 4
  %19 = or i32 %18, %12
  %20 = getelementptr i8, ptr %0, i64 24
  %.val38 = load ptr, ptr %20, align 8, !tbaa !4
  %.val39 = load ptr, ptr %3, align 8, !tbaa !24
  tail call fastcc void @mxf_write_local_tag(ptr %.val38, ptr %.val39, i32 noundef 4, i32 noundef 32768)
  %21 = getelementptr inbounds nuw i8, ptr %6, i64 96
  %22 = load i32, ptr %21, align 8, !tbaa !194
  tail call void @avio_wb32(ptr noundef %4, i32 noundef %22) #14
  %.val36 = load ptr, ptr %20, align 8, !tbaa !4
  %.val37 = load ptr, ptr %3, align 8, !tbaa !24
  tail call fastcc void @mxf_write_local_tag(ptr %.val36, ptr %.val37, i32 noundef 1, i32 noundef 32775)
  %23 = load ptr, ptr %7, align 8, !tbaa !48
  %24 = getelementptr inbounds nuw i8, ptr %23, i64 64
  %25 = load i32, ptr %24, align 8, !tbaa !55
  %.not28 = icmp eq i32 %25, 0
  %26 = or i32 %19, 128
  %spec.select = select i1 %.not28, i32 %26, i32 %19
  tail call void @avio_w8(ptr noundef %4, i32 noundef %spec.select) #14
  %.val34 = load ptr, ptr %20, align 8, !tbaa !4
  %.val35 = load ptr, ptr %3, align 8, !tbaa !24
  tail call fastcc void @mxf_write_local_tag(ptr %.val34, ptr %.val35, i32 noundef 1, i32 noundef 32771)
  %27 = getelementptr inbounds nuw i8, ptr %6, i64 120
  %28 = load i32, ptr %27, align 8, !tbaa !57
  tail call void @avio_w8(ptr noundef %4, i32 noundef %28) #14
  %.val32 = load ptr, ptr %20, align 8, !tbaa !4
  %.val33 = load ptr, ptr %3, align 8, !tbaa !24
  tail call fastcc void @mxf_write_local_tag(ptr %.val32, ptr %.val33, i32 noundef 1, i32 noundef 32772)
  %29 = getelementptr inbounds nuw i8, ptr %6, i64 108
  %30 = load i32, ptr %29, align 4, !tbaa !60
  tail call void @avio_w8(ptr noundef %4, i32 noundef %30) #14
  %.val30 = load ptr, ptr %20, align 8, !tbaa !4
  %.val31 = load ptr, ptr %3, align 8, !tbaa !24
  tail call fastcc void @mxf_write_local_tag(ptr %.val30, ptr %.val31, i32 noundef 2, i32 noundef 32774)
  %31 = getelementptr inbounds nuw i8, ptr %6, i64 112
  %32 = load i32, ptr %31, align 8, !tbaa !233
  tail call void @avio_wb16(ptr noundef %4, i32 noundef %32) #14
  %.val = load ptr, ptr %20, align 8, !tbaa !4
  %.val29 = load ptr, ptr %3, align 8, !tbaa !24
  tail call fastcc void @mxf_write_local_tag(ptr %.val, ptr %.val29, i32 noundef 2, i32 noundef 32776)
  %33 = getelementptr inbounds nuw i8, ptr %6, i64 116
  %34 = load i32, ptr %33, align 4, !tbaa !235
  tail call void @avio_wb16(ptr noundef %4, i32 noundef %34) #14
  br label %35

35:                                               ; preds = %17, %2
  %36 = tail call i64 @avio_seek(ptr noundef %4, i64 noundef 0, i32 noundef 1) #14
  %37 = sub nsw i64 %36, %13
  %38 = trunc i64 %37 to i32
  %39 = add nsw i64 %13, -4
  %40 = tail call i64 @avio_seek(ptr noundef %4, i64 noundef %39, i32 noundef 0) #14
  tail call void @avio_w8(ptr noundef %4, i32 noundef 131) #14
  tail call void @avio_wb24(ptr noundef %4, i32 noundef %38) #14
  %41 = tail call i64 @avio_seek(ptr noundef %4, i64 noundef %36, i32 noundef 0) #14
  ret i32 0
}